; Function Attrs: mustprogress nounwind uwtable
define hidden noundef ptr @_ZN14RoundFloatNode8IdentityEP8PhaseGVN(ptr noundef nonnull readonly align 8 dereferenceable(52) %0, ptr nocapture noundef readonly %1) unnamed_addr #1 align 2 {
  %3 = getelementptr inbounds i8, ptr %0, i64 8
  %4 = load ptr, ptr %3, align 8
  %5 = getelementptr inbounds i8, ptr %4, i64 8
  %6 = load ptr, ptr %5, align 8
  %7 = getelementptr inbounds i8, ptr %1, i64 40
  %8 = load ptr, ptr %7, align 8
  %9 = getelementptr inbounds i8, ptr %6, i64 40
  %10 = load i32, ptr %9, align 8
  %11 = getelementptr inbounds i8, ptr %8, i64 16
  %12 = load ptr, ptr %11, align 8
  %13 = zext i32 %10 to i64
  %14 = getelementptr inbounds ptr, ptr %12, i64 %13
  %15 = load ptr, ptr %14, align 8
  %16 = getelementptr inbounds i8, ptr %15, i64 16
  %17 = load i32, ptr %16, align 8
  %18 = icmp eq i32 %17, 32
  br i1 %18, label %26, label %19

19:                                               ; preds = %2
  %20 = load ptr, ptr %6, align 8
  %21 = load ptr, ptr %20, align 8
  %22 = tail call noundef i32 %21(ptr noundef nonnull align 8 dereferenceable(52) %6) #8
  switch i32 %22, label %26 [
    i32 295, label %.sink.split
    i32 271, label %.sink.split
    i32 192, label %.sink.split
  ]

.sink.split:                                      ; preds = %19, %19, %19
  %23 = load ptr, ptr %3, align 8
  %24 = getelementptr inbounds i8, ptr %23, i64 8
  %25 = load ptr, ptr %24, align 8
  br label %26

26:                                               ; preds = %.sink.split, %2, %19
  %.0 = phi ptr [ %0, %19 ], [ %6, %2 ], [ %25, %.sink.split ]
  ret ptr %.0
}